target datalayout = "e-m:e-p270:32:32-p271:32:32-p272:64:64-i64:64-i128:128-f80:128-n8:16:32:64-S128"
target triple = "x86_64-unknown-linux-gnu"

%struct.LSIState = type { %struct.PCIDevice, ptr, %struct.MemoryRegion, %struct.MemoryRegion, %struct.MemoryRegion, %struct.AddressSpace, i32, i32, i32, i32, [8 x i8], i32, %struct.SCSIBus, i32, i32, i32, %union.anon.4, ptr, i32, i32, i32, i32, i8, i8, i8, i8, i8, i8, i8, i8, i8, i8, i8, i8, i8, i8, i8, i8, i8, i8, i32, i32, i8, i8, i8, i8, i8, i8, i8, i8, i8, i8, i8, i8, i8, i8, i8, i8, i8, i8, i8, i8, i8, i8, i32, i32, i32, i32, i32, i32, i32, i32, i32, i32, i32, i32, i32, i32, [18 x i32], i8, i32, [8192 x i8] }
%struct.PCIDevice = type { %struct.DeviceState, i8, i8, ptr, ptr, ptr, ptr, ptr, i32, %struct.PCIReqIDCache, [64 x i8], [7 x %struct.PCIIORegion], %struct.AddressSpace, %struct.MemoryRegion, %struct.MemoryRegion, ptr, ptr, [3 x ptr], i8, i8, i32, i8, i32, ptr, ptr, ptr, ptr, ptr, ptr, %struct.MemoryRegion, %struct.MemoryRegion, %struct.MemoryRegion, ptr, i8, i32, i8, %struct.PCIExpressDevice, ptr, ptr, i32, i8, %struct.MemoryRegion, i32, ptr, ptr, ptr, ptr, ptr, i32 }
%struct.DeviceState = type { %struct.Object, ptr, ptr, i8, i8, i64, ptr, i32, i8, ptr, %struct.NamedGPIOListHead, %struct.NamedClockListHead, %struct.BusStateHead, i32, i32, i32, %struct.ResettableState, ptr, %struct.MemReentrancyGuard }
%struct.Object = type { ptr, ptr, ptr, i32, ptr }
%struct.NamedGPIOListHead = type { ptr }
%struct.NamedClockListHead = type { ptr }
%struct.BusStateHead = type { ptr }
%struct.ResettableState = type { i32, i8, i8 }
%struct.MemReentrancyGuard = type { i8 }
%struct.PCIReqIDCache = type { ptr, i32 }
%struct.PCIIORegion = type { i64, i64, i8, ptr, ptr }
%struct.PCIExpressDevice = type { i8, i8, i8, i16, %struct.PCIEAERLog, i16, i16, i16, %struct.PCIESriovPF, %struct.PCIESriovVF }
%struct.PCIEAERLog = type { i16, i16, ptr }
%struct.PCIESriovPF = type { i16, [7 x i8], ptr, ptr }
%struct.PCIESriovVF = type { ptr, i16 }
%struct.MemoryRegion = type { %struct.Object, i8, i8, i8, i8, i8, i8, i8, i8, i8, i8, ptr, ptr, ptr, ptr, ptr, ptr, i32, i128, i64, ptr, i64, i8, i8, i8, i8, i8, ptr, i64, i32, %union.anon.1, %union.anon.2, %union.anon.3, ptr, i32, ptr, ptr, i8 }
%union.anon.1 = type { %struct.QTailQLink }
%struct.QTailQLink = type { ptr, ptr }
%union.anon.2 = type { %struct.QTailQLink }
%union.anon.3 = type { %struct.QTailQLink }
%struct.AddressSpace = type { %struct.rcu_head, ptr, ptr, ptr, i32, i32, ptr, %union.anon, %union.anon.0 }
%struct.rcu_head = type { ptr, ptr }
%union.anon = type { %struct.QTailQLink }
%union.anon.0 = type { %struct.QTailQLink }
%struct.SCSIBus = type { %struct.BusState, i32, %struct.SCSISense, ptr, i32 }
%struct.BusState = type { %struct.Object, ptr, ptr, ptr, i32, i8, i8, i32, %union.BusChildHead, %struct.BusStateEntry, %struct.ResettableState }
%union.BusChildHead = type { %struct.QTailQLink }
%struct.BusStateEntry = type { ptr, ptr }
%struct.SCSISense = type { i8, i8, i8 }
%union.anon.4 = type { %struct.QTailQLink }
%struct.lsi_request = type { ptr, i32, i32, ptr, i32, i32, %union.anon.6 }
%union.anon.6 = type { %struct.QTailQLink }

@.str.11 = private unnamed_addr constant [29 x i8] c"../qemu/hw/scsi/lsi53c895a.c\00", align 1
@.str.191 = private unnamed_addr constant [25 x i8] c"s->current->dma_len == 0\00", align 1
@.str.285 = private unnamed_addr constant [24 x i8] c"QTAILQ_EMPTY(&s->queue)\00", align 1
@.str.361 = private unnamed_addr constant [28 x i8] c"s->current->dma_buf == NULL\00", align 1
@__PRETTY_FUNCTION__.lsi_pre_save = private unnamed_addr constant [25 x i8] c"int lsi_pre_save(void *)\00", align 1

; Function Attrs: nounwind sspstrong uwtable
define internal i32 @lsi_pre_save(ptr noundef %opaque) #0 {
entry:
  %opaque.addr = alloca ptr, align 8
  %s = alloca ptr, align 8
  store ptr %opaque, ptr %opaque.addr, align 8
  %0 = load ptr, ptr %opaque.addr, align 8
  store ptr %0, ptr %s, align 8
  %1 = load ptr, ptr %s, align 8
  %current = getelementptr inbounds %struct.LSIState, ptr %1, i32 0, i32 17
  %2 = load ptr, ptr %current, align 8
  %tobool = icmp ne ptr %2, null
  br i1 %tobool, label %if.then, label %if.end8

if.then:                                          ; preds = %entry
  %3 = load ptr, ptr %s, align 8
  %current1 = getelementptr inbounds %struct.LSIState, ptr %3, i32 0, i32 17
  %4 = load ptr, ptr %current1, align 8
  %dma_buf = getelementptr inbounds %struct.lsi_request, ptr %4, i32 0, i32 3
  %5 = load ptr, ptr %dma_buf, align 8
  %cmp = icmp eq ptr %5, null
  br i1 %cmp, label %if.then2, label %if.else

if.then2:                                         ; preds = %if.then
  br label %if.end

if.else:                                          ; preds = %if.then
  call void @__assert_fail(ptr noundef @.str.361, ptr noundef @.str.11, i32 noundef 2183, ptr noundef @__PRETTY_FUNCTION__.lsi_pre_save) #9
  unreachable

if.end:                                           ; preds = %if.then2
  %6 = load ptr, ptr %s, align 8
  %current3 = getelementptr inbounds %struct.LSIState, ptr %6, i32 0, i32 17
  %7 = load ptr, ptr %current3, align 8
  %dma_len = getelementptr inbounds %struct.lsi_request, ptr %7, i32 0, i32 2
  %8 = load i32, ptr %dma_len, align 4
  %cmp4 = icmp eq i32 %8, 0
  br i1 %cmp4, label %if.then5, label %if.else6

if.then5:                                         ; preds = %if.end
  br label %if.end7

if.else6:                                         ; preds = %if.end
  call void @__assert_fail(ptr noundef @.str.191, ptr noundef @.str.11, i32 noundef 2184, ptr noundef @__PRETTY_FUNCTION__.lsi_pre_save) #9
  unreachable

if.end7:                                          ; preds = %if.then5
  br label %if.end8

if.end8:                                          ; preds = %if.end7, %entry
  %9 = load ptr, ptr %s, align 8
  %queue = getelementptr inbounds %struct.LSIState, ptr %9, i32 0, i32 16
  %10 = load ptr, ptr %queue, align 8
  %cmp9 = icmp eq ptr %10, null
  br i1 %cmp9, label %if.then10, label %if.else11

if.then10:                                        ; preds = %if.end8
  br label %if.end12

if.else11:                                        ; preds = %if.end8
  call void @__assert_fail(ptr noundef @.str.285, ptr noundef @.str.11, i32 noundef 2186, ptr noundef @__PRETTY_FUNCTION__.lsi_pre_save) #9
  unreachable

if.end12:                                         ; preds = %if.then10
  ret i32 0
}