; Function Attrs: nounwind sspstrong uwtable
define internal noundef i32 @lsi_pre_save(ptr noundef readonly captures(none) %opaque) #0 {
entry:
  %current = getelementptr inbounds nuw i8, ptr %opaque, i64 3736
  %0 = load ptr, ptr %current, align 8
  %tobool.not = icmp eq ptr %0, null
  br i1 %tobool.not, label %if.end8, label %if.then

if.then:                                          ; preds = %entry
  %dma_buf = getelementptr inbounds nuw i8, ptr %0, i64 16
  %1 = load ptr, ptr %dma_buf, align 8
  %cmp = icmp eq ptr %1, null
  br i1 %cmp, label %if.end, label %if.else

if.else:                                          ; preds = %if.then
  tail call void @__assert_fail(ptr noundef nonnull @.str.361, ptr noundef nonnull @.str.11, i32 noundef 2183, ptr noundef nonnull @__PRETTY_FUNCTION__.lsi_pre_save) #13
  unreachable

if.end:                                           ; preds = %if.then
  %dma_len = getelementptr inbounds nuw i8, ptr %0, i64 12
  %2 = load i32, ptr %dma_len, align 4
  %cmp4 = icmp eq i32 %2, 0
  br i1 %cmp4, label %if.end8, label %if.else6

if.else6:                                         ; preds = %if.end
  tail call void @__assert_fail(ptr noundef nonnull @.str.191, ptr noundef nonnull @.str.11, i32 noundef 2184, ptr noundef nonnull @__PRETTY_FUNCTION__.lsi_pre_save) #13
  unreachable

if.end8:                                          ; preds = %if.end, %entry
  %queue = getelementptr inbounds nuw i8, ptr %opaque, i64 3720
  %3 = load ptr, ptr %queue, align 8
  %cmp9 = icmp eq ptr %3, null
  br i1 %cmp9, label %if.end12, label %if.else11

if.else11:                                        ; preds = %if.end8
  tail call void @__assert_fail(ptr noundef nonnull @.str.285, ptr noundef nonnull @.str.11, i32 noundef 2186, ptr noundef nonnull @__PRETTY_FUNCTION__.lsi_pre_save) #13
  unreachable

if.end12:                                         ; preds = %if.end8
  ret i32 0
}